; Function Attrs: mustprogress uwtable
define hidden void @_ZN4lean10apply_betaENS_4exprEjPKS0_bb(ptr dead_on_unwind noalias writable sret(%"class.lean::expr") align 8 %0, ptr noundef captures(none) %1, i32 noundef %2, ptr noundef %3, i1 noundef zeroext %4, i1 noundef zeroext %5) local_unnamed_addr #0 personality ptr @__gxx_personality_v0 {
  %7 = alloca %"class.lean::expr", align 8
  %8 = icmp eq i32 %2, 0
  %9 = load ptr, ptr %1, align 8, !tbaa !3
  br i1 %8, label %10, label %11

10:                                               ; preds = %6
  store ptr %9, ptr %0, align 8, !tbaa !3
  store ptr inttoptr (i64 1 to ptr), ptr %1, align 8, !tbaa !3
  br label %_ZN4lean10object_refD2Ev.exit

11:                                               ; preds = %6
  store ptr %9, ptr %7, align 8, !tbaa !3
  %12 = ptrtoint ptr %9 to i64
  %13 = and i64 %12, 1
  %.not.i.i.i = icmp eq i64 %13, 0
  br i1 %.not.i.i.i, label %14, label %_ZN4lean4exprC2ERKS0_.exit

14:                                               ; preds = %11
  %.val.i.i.i.i = load i32, ptr %9, align 4, !tbaa !8
  %15 = icmp sgt i32 %.val.i.i.i.i, 0
  br i1 %15, label %16, label %18, !prof !11

16:                                               ; preds = %14
  %17 = add nuw nsw i32 %.val.i.i.i.i, 1
  store i32 %17, ptr %9, align 4, !tbaa !8
  br label %_ZN4lean4exprC2ERKS0_.exit

18:                                               ; preds = %14
  %.not.i.i.i.i = icmp eq i32 %.val.i.i.i.i, 0
  br i1 %.not.i.i.i.i, label %_ZN4lean4exprC2ERKS0_.exit, label %19

19:                                               ; preds = %18
  tail call void @lean_inc_ref_cold(ptr noundef nonnull %9)
  br label %_ZN4lean4exprC2ERKS0_.exit

_ZN4lean4exprC2ERKS0_.exit:                       ; preds = %11, %16, %18, %19
  invoke fastcc void @_ZN4leanL14apply_beta_recENS_4exprEjjPKS0_bb(ptr dead_on_unwind noalias writable align 8 %0, ptr noundef %7, i32 noundef 0, i32 noundef %2, ptr noundef %3, i1 noundef zeroext %4, i1 noundef zeroext %5)
          to label %20 unwind label %34

20:                                               ; preds = %_ZN4lean4exprC2ERKS0_.exit
  %21 = load ptr, ptr %7, align 8, !tbaa !3
  %22 = ptrtoint ptr %21 to i64
  %23 = and i64 %22, 1
  %.not.i.i = icmp eq i64 %23, 0
  br i1 %.not.i.i, label %24, label %_ZN4lean10object_refD2Ev.exit

24:                                               ; preds = %20
  %25 = load i32, ptr %21, align 4, !tbaa !8
  %26 = icmp sgt i32 %25, 1
  br i1 %26, label %27, label %29, !prof !11

27:                                               ; preds = %24
  %28 = add nsw i32 %25, -1
  store i32 %28, ptr %21, align 4, !tbaa !8
  br label %_ZN4lean10object_refD2Ev.exit

29:                                               ; preds = %24
  %.not.i.i.i6 = icmp eq i32 %25, 0
  br i1 %.not.i.i.i6, label %_ZN4lean10object_refD2Ev.exit, label %30

30:                                               ; preds = %29
  invoke void @lean_dec_ref_cold(ptr noundef nonnull %21)
          to label %_ZN4lean10object_refD2Ev.exit unwind label %31

31:                                               ; preds = %30
  %32 = landingpad { ptr, i32 }
          catch ptr null
  %33 = extractvalue { ptr, i32 } %32, 0
  call void @__clang_call_terminate(ptr %33) #13
  unreachable

34:                                               ; preds = %_ZN4lean4exprC2ERKS0_.exit
  %35 = landingpad { ptr, i32 }
          cleanup
  call void @_ZN4lean10object_refD2Ev(ptr noundef nonnull align 8 dereferenceable(8) %7) #12
  resume { ptr, i32 } %35

_ZN4lean10object_refD2Ev.exit:                    ; preds = %30, %29, %27, %20, %10
  ret void
}